target datalayout = "e-m:e-p270:32:32-p271:32:32-p272:64:64-i64:64-i128:128-f80:128-n8:16:32:64-S128"
target triple = "x86_64-pc-linux-gnu"

%struct.wtapng_if_descr_mandatory_s = type { i32, i64, i32, i32, i8, ptr }

@out_frame_type = internal global i32 -2, align 4

; Function Attrs: null_pointer_is_valid sspstrong uwtable
define internal zeroext i1 @process_new_idbs(ptr noundef %0, ptr noundef %1, ptr noundef %2, ptr noundef %3, ptr noundef %4) #0 {
  %6 = alloca i1, align 1
  %7 = alloca ptr, align 8
  %8 = alloca ptr, align 8
  %9 = alloca ptr, align 8
  %10 = alloca ptr, align 8
  %11 = alloca ptr, align 8
  %12 = alloca ptr, align 8
  %13 = alloca ptr, align 8
  %14 = alloca ptr, align 8
  %15 = alloca i32, align 4
  store ptr %0, ptr %7, align 8
  store ptr %1, ptr %8, align 8
  store ptr %2, ptr %9, align 8
  store ptr %3, ptr %10, align 8
  store ptr %4, ptr %11, align 8
  call void @llvm.lifetime.start.p0(i64 8, ptr %12) #14
  br label %16

16:                                               ; preds = %55, %5
  %17 = load ptr, ptr %7, align 8
  %18 = call ptr @wtap_get_next_interface_description(ptr noundef %17)
  store ptr %18, ptr %12, align 8
  %19 = icmp ne ptr %18, null
  br i1 %19, label %20, label %56

20:                                               ; preds = %16
  %21 = load ptr, ptr %8, align 8
  %22 = icmp ne ptr %21, null
  br i1 %22, label %23, label %55

23:                                               ; preds = %20
  %24 = load ptr, ptr %8, align 8
  %25 = call i32 @wtap_dump_file_type_subtype(ptr noundef %24)
  %26 = call i32 @wtap_file_type_subtype_supports_block(i32 noundef %25, i32 noundef 1)
  %27 = icmp ne i32 %26, 0
  br i1 %27, label %28, label %55

28:                                               ; preds = %23
  call void @llvm.lifetime.start.p0(i64 8, ptr %13) #14
  %29 = load ptr, ptr %12, align 8
  %30 = call ptr @wtap_block_make_copy(ptr noundef %29)
  store ptr %30, ptr %13, align 8
  %31 = load i32, ptr @out_frame_type, align 4
  %32 = icmp ne i32 %31, -2
  br i1 %32, label %33, label %39

33:                                               ; preds = %28
  call void @llvm.lifetime.start.p0(i64 8, ptr %14) #14
  %34 = load ptr, ptr %13, align 8
  %35 = call ptr @wtap_block_get_mandatory_data(ptr noundef %34)
  store ptr %35, ptr %14, align 8
  %36 = load i32, ptr @out_frame_type, align 4
  %37 = load ptr, ptr %14, align 8
  %38 = getelementptr inbounds nuw %struct.wtapng_if_descr_mandatory_s, ptr %37, i32 0, i32 0
  store i32 %36, ptr %38, align 8
  call void @llvm.lifetime.end.p0(i64 8, ptr %14) #14
  br label %39

39:                                               ; preds = %33, %28
  %40 = load ptr, ptr %8, align 8
  %41 = load ptr, ptr %13, align 8
  %42 = load ptr, ptr %10, align 8
  %43 = load ptr, ptr %11, align 8
  %44 = call zeroext i1 @wtap_dump_add_idb(ptr noundef %40, ptr noundef %41, ptr noundef %42, ptr noundef %43)
  br i1 %44, label %46, label %45

45:                                               ; preds = %39
  store i1 false, ptr %6, align 1
  store i32 1, ptr %15, align 4
  br label %52

46:                                               ; preds = %39
  %47 = load ptr, ptr %13, align 8
  call void @wtap_block_unref(ptr noundef %47)
  %48 = load ptr, ptr %12, align 8
  %49 = call ptr @wtap_block_make_copy(ptr noundef %48)
  store ptr %49, ptr %13, align 8
  %50 = load ptr, ptr %9, align 8
  %51 = call ptr @g_array_append_vals(ptr noundef %50, ptr noundef %13, i32 noundef 1)
  store i32 0, ptr %15, align 4
  br label %52

52:                                               ; preds = %46, %45
  call void @llvm.lifetime.end.p0(i64 8, ptr %13) #14
  %53 = load i32, ptr %15, align 4
  switch i32 %53, label %57 [
    i32 0, label %54
  ]

54:                                               ; preds = %52
  br label %55

55:                                               ; preds = %54, %23, %20
  br label %16, !llvm.loop !42

56:                                               ; preds = %16
  store i1 true, ptr %6, align 1
  store i32 1, ptr %15, align 4
  br label %57

57:                                               ; preds = %56, %52
  call void @llvm.lifetime.end.p0(i64 8, ptr %12) #14
  %58 = load i1, ptr %6, align 1
  ret i1 %58
}