; Function Attrs: null_pointer_is_valid sspstrong uwtable
define internal fastcc noundef zeroext i1 @process_new_idbs(ptr noundef nonnull %0, ptr noundef %1, ptr noundef %2, ptr noundef %3, ptr noundef %4) unnamed_addr #0 {
  %6 = alloca ptr, align 8
  %7 = tail call ptr @wtap_get_next_interface_description(ptr noundef nonnull %0)
  %.not19 = icmp eq ptr %7, null
  br i1 %.not19, label %.loopexit, label %.lr.ph

.lr.ph:                                           ; preds = %5
  %.not14 = icmp eq ptr %1, null
  br i1 %.not14, label %.lr.ph.split.us, label %.lr.ph.split

.lr.ph.split.us:                                  ; preds = %.lr.ph, %.lr.ph.split.us
  %8 = tail call ptr @wtap_get_next_interface_description(ptr noundef nonnull %0)
  %.not.us = icmp eq ptr %8, null
  br i1 %.not.us, label %.loopexit, label %.lr.ph.split.us, !llvm.loop !40

.lr.ph.split:                                     ; preds = %.lr.ph, %25
  %9 = phi ptr [ %26, %25 ], [ %7, %.lr.ph ]
  %10 = call i32 @wtap_dump_file_type_subtype(ptr noundef nonnull %1)
  %11 = call i32 @wtap_file_type_subtype_supports_block(i32 noundef %10, i32 noundef 1)
  %.not15 = icmp eq i32 %11, 0
  br i1 %.not15, label %25, label %12

12:                                               ; preds = %.lr.ph.split
  call void @llvm.lifetime.start.p0(i64 8, ptr nonnull %6) #21
  %13 = call ptr @wtap_block_make_copy(ptr noundef nonnull %9)
  store ptr %13, ptr %6, align 8
  %14 = load i32, ptr @out_frame_type, align 4
  %.not16 = icmp eq i32 %14, -2
  br i1 %.not16, label %18, label %15

15:                                               ; preds = %12
  %16 = call ptr @wtap_block_get_mandatory_data(ptr noundef %13)
  %17 = load i32, ptr @out_frame_type, align 4
  store i32 %17, ptr %16, align 8
  %.pre = load ptr, ptr %6, align 8
  br label %18

18:                                               ; preds = %15, %12
  %19 = phi ptr [ %.pre, %15 ], [ %13, %12 ]
  %20 = call zeroext i1 @wtap_dump_add_idb(ptr noundef nonnull %1, ptr noundef %19, ptr noundef %3, ptr noundef %4)
  br i1 %20, label %21, label %.critedge

21:                                               ; preds = %18
  %22 = load ptr, ptr %6, align 8
  call void @wtap_block_unref(ptr noundef %22)
  %23 = call ptr @wtap_block_make_copy(ptr noundef nonnull %9)
  store ptr %23, ptr %6, align 8
  %24 = call ptr @g_array_append_vals(ptr noundef %2, ptr noundef nonnull %6, i32 noundef 1)
  call void @llvm.lifetime.end.p0(i64 8, ptr nonnull %6) #21
  br label %25

25:                                               ; preds = %21, %.lr.ph.split
  %26 = call ptr @wtap_get_next_interface_description(ptr noundef nonnull %0)
  %.not = icmp eq ptr %26, null
  br i1 %.not, label %.loopexit, label %.lr.ph.split, !llvm.loop !40

.critedge:                                        ; preds = %18
  call void @llvm.lifetime.end.p0(i64 8, ptr nonnull %6) #21
  br label %.loopexit

.loopexit:                                        ; preds = %25, %.lr.ph.split.us, %5, %.critedge
  %.not18 = phi i1 [ false, %.critedge ], [ true, %5 ], [ true, %.lr.ph.split.us ], [ true, %25 ]
  ret i1 %.not18
}